target datalayout = "e-m:e-p270:32:32-p271:32:32-p272:64:64-i64:64-i128:128-f80:128-n8:16:32:64-S128"
target triple = "x86_64-pc-linux-gnu"

@ff_crop_tab = external hidden constant [2304 x i8], align 16

; Function Attrs: nounwind uwtable
define internal void @wmv2_mspel8_v_lowpass(ptr noundef %0, ptr noundef %1, i32 noundef %2, i32 noundef %3, i32 noundef %4) #1 {
  %6 = alloca ptr, align 8
  %7 = alloca ptr, align 8
  %8 = alloca i32, align 4
  %9 = alloca i32, align 4
  %10 = alloca i32, align 4
  %11 = alloca ptr, align 8
  %12 = alloca i32, align 4
  %13 = alloca i32, align 4
  %14 = alloca i32, align 4
  %15 = alloca i32, align 4
  %16 = alloca i32, align 4
  %17 = alloca i32, align 4
  %18 = alloca i32, align 4
  %19 = alloca i32, align 4
  %20 = alloca i32, align 4
  %21 = alloca i32, align 4
  %22 = alloca i32, align 4
  %23 = alloca i32, align 4
  store ptr %0, ptr %6, align 8, !tbaa !15
  store ptr %1, ptr %7, align 8, !tbaa !15
  store i32 %2, ptr %8, align 4, !tbaa !21
  store i32 %3, ptr %9, align 4, !tbaa !21
  store i32 %4, ptr %10, align 4, !tbaa !21
  call void @llvm.lifetime.start.p0(i64 8, ptr %11) #5
  store ptr getelementptr inbounds (i8, ptr @ff_crop_tab, i64 1024), ptr %11, align 8, !tbaa !15
  call void @llvm.lifetime.start.p0(i64 4, ptr %12) #5
  store i32 0, ptr %12, align 4, !tbaa !21
  br label %24

24:                                               ; preds = %258, %5
  %25 = load i32, ptr %12, align 4, !tbaa !21
  %26 = load i32, ptr %10, align 4, !tbaa !21
  %27 = icmp slt i32 %25, %26
  br i1 %27, label %28, label %261

28:                                               ; preds = %24
  call void @llvm.lifetime.start.p0(i64 4, ptr %13) #5
  %29 = load ptr, ptr %7, align 8, !tbaa !15
  %30 = load i32, ptr %9, align 4, !tbaa !21
  %31 = sub nsw i32 0, %30
  %32 = sext i32 %31 to i64
  %33 = getelementptr inbounds i8, ptr %29, i64 %32
  %34 = load i8, ptr %33, align 1, !tbaa !25
  %35 = zext i8 %34 to i32
  store i32 %35, ptr %13, align 4, !tbaa !21
  call void @llvm.lifetime.start.p0(i64 4, ptr %14) #5
  %36 = load ptr, ptr %7, align 8, !tbaa !15
  %37 = getelementptr inbounds i8, ptr %36, i64 0
  %38 = load i8, ptr %37, align 1, !tbaa !25
  %39 = zext i8 %38 to i32
  store i32 %39, ptr %14, align 4, !tbaa !21
  call void @llvm.lifetime.start.p0(i64 4, ptr %15) #5
  %40 = load ptr, ptr %7, align 8, !tbaa !15
  %41 = load i32, ptr %9, align 4, !tbaa !21
  %42 = sext i32 %41 to i64
  %43 = getelementptr inbounds i8, ptr %40, i64 %42
  %44 = load i8, ptr %43, align 1, !tbaa !25
  %45 = zext i8 %44 to i32
  store i32 %45, ptr %15, align 4, !tbaa !21
  call void @llvm.lifetime.start.p0(i64 4, ptr %16) #5
  %46 = load ptr, ptr %7, align 8, !tbaa !15
  %47 = load i32, ptr %9, align 4, !tbaa !21
  %48 = mul nsw i32 2, %47
  %49 = sext i32 %48 to i64
  %50 = getelementptr inbounds i8, ptr %46, i64 %49
  %51 = load i8, ptr %50, align 1, !tbaa !25
  %52 = zext i8 %51 to i32
  store i32 %52, ptr %16, align 4, !tbaa !21
  call void @llvm.lifetime.start.p0(i64 4, ptr %17) #5
  %53 = load ptr, ptr %7, align 8, !tbaa !15
  %54 = load i32, ptr %9, align 4, !tbaa !21
  %55 = mul nsw i32 3, %54
  %56 = sext i32 %55 to i64
  %57 = getelementptr inbounds i8, ptr %53, i64 %56
  %58 = load i8, ptr %57, align 1, !tbaa !25
  %59 = zext i8 %58 to i32
  store i32 %59, ptr %17, align 4, !tbaa !21
  call void @llvm.lifetime.start.p0(i64 4, ptr %18) #5
  %60 = load ptr, ptr %7, align 8, !tbaa !15
  %61 = load i32, ptr %9, align 4, !tbaa !21
  %62 = mul nsw i32 4, %61
  %63 = sext i32 %62 to i64
  %64 = getelementptr inbounds i8, ptr %60, i64 %63
  %65 = load i8, ptr %64, align 1, !tbaa !25
  %66 = zext i8 %65 to i32
  store i32 %66, ptr %18, align 4, !tbaa !21
  call void @llvm.lifetime.start.p0(i64 4, ptr %19) #5
  %67 = load ptr, ptr %7, align 8, !tbaa !15
  %68 = load i32, ptr %9, align 4, !tbaa !21
  %69 = mul nsw i32 5, %68
  %70 = sext i32 %69 to i64
  %71 = getelementptr inbounds i8, ptr %67, i64 %70
  %72 = load i8, ptr %71, align 1, !tbaa !25
  %73 = zext i8 %72 to i32
  store i32 %73, ptr %19, align 4, !tbaa !21
  call void @llvm.lifetime.start.p0(i64 4, ptr %20) #5
  %74 = load ptr, ptr %7, align 8, !tbaa !15
  %75 = load i32, ptr %9, align 4, !tbaa !21
  %76 = mul nsw i32 6, %75
  %77 = sext i32 %76 to i64
  %78 = getelementptr inbounds i8, ptr %74, i64 %77
  %79 = load i8, ptr %78, align 1, !tbaa !25
  %80 = zext i8 %79 to i32
  store i32 %80, ptr %20, align 4, !tbaa !21
  call void @llvm.lifetime.start.p0(i64 4, ptr %21) #5
  %81 = load ptr, ptr %7, align 8, !tbaa !15
  %82 = load i32, ptr %9, align 4, !tbaa !21
  %83 = mul nsw i32 7, %82
  %84 = sext i32 %83 to i64
  %85 = getelementptr inbounds i8, ptr %81, i64 %84
  %86 = load i8, ptr %85, align 1, !tbaa !25
  %87 = zext i8 %86 to i32
  store i32 %87, ptr %21, align 4, !tbaa !21
  call void @llvm.lifetime.start.p0(i64 4, ptr %22) #5
  %88 = load ptr, ptr %7, align 8, !tbaa !15
  %89 = load i32, ptr %9, align 4, !tbaa !21
  %90 = mul nsw i32 8, %89
  %91 = sext i32 %90 to i64
  %92 = getelementptr inbounds i8, ptr %88, i64 %91
  %93 = load i8, ptr %92, align 1, !tbaa !25
  %94 = zext i8 %93 to i32
  store i32 %94, ptr %22, align 4, !tbaa !21
  call void @llvm.lifetime.start.p0(i64 4, ptr %23) #5
  %95 = load ptr, ptr %7, align 8, !tbaa !15
  %96 = load i32, ptr %9, align 4, !tbaa !21
  %97 = mul nsw i32 9, %96
  %98 = sext i32 %97 to i64
  %99 = getelementptr inbounds i8, ptr %95, i64 %98
  %100 = load i8, ptr %99, align 1, !tbaa !25
  %101 = zext i8 %100 to i32
  store i32 %101, ptr %23, align 4, !tbaa !21
  %102 = load ptr, ptr %11, align 8, !tbaa !15
  %103 = load i32, ptr %14, align 4, !tbaa !21
  %104 = load i32, ptr %15, align 4, !tbaa !21
  %105 = add nsw i32 %103, %104
  %106 = mul nsw i32 9, %105
  %107 = load i32, ptr %13, align 4, !tbaa !21
  %108 = load i32, ptr %16, align 4, !tbaa !21
  %109 = add nsw i32 %107, %108
  %110 = sub nsw i32 %106, %109
  %111 = add nsw i32 %110, 8
  %112 = ashr i32 %111, 4
  %113 = sext i32 %112 to i64
  %114 = getelementptr inbounds i8, ptr %102, i64 %113
  %115 = load i8, ptr %114, align 1, !tbaa !25
  %116 = load ptr, ptr %6, align 8, !tbaa !15
  %117 = load i32, ptr %8, align 4, !tbaa !21
  %118 = mul nsw i32 0, %117
  %119 = sext i32 %118 to i64
  %120 = getelementptr inbounds i8, ptr %116, i64 %119
  store i8 %115, ptr %120, align 1, !tbaa !25
  %121 = load ptr, ptr %11, align 8, !tbaa !15
  %122 = load i32, ptr %15, align 4, !tbaa !21
  %123 = load i32, ptr %16, align 4, !tbaa !21
  %124 = add nsw i32 %122, %123
  %125 = mul nsw i32 9, %124
  %126 = load i32, ptr %14, align 4, !tbaa !21
  %127 = load i32, ptr %17, align 4, !tbaa !21
  %128 = add nsw i32 %126, %127
  %129 = sub nsw i32 %125, %128
  %130 = add nsw i32 %129, 8
  %131 = ashr i32 %130, 4
  %132 = sext i32 %131 to i64
  %133 = getelementptr inbounds i8, ptr %121, i64 %132
  %134 = load i8, ptr %133, align 1, !tbaa !25
  %135 = load ptr, ptr %6, align 8, !tbaa !15
  %136 = load i32, ptr %8, align 4, !tbaa !21
  %137 = mul nsw i32 1, %136
  %138 = sext i32 %137 to i64
  %139 = getelementptr inbounds i8, ptr %135, i64 %138
  store i8 %134, ptr %139, align 1, !tbaa !25
  %140 = load ptr, ptr %11, align 8, !tbaa !15
  %141 = load i32, ptr %16, align 4, !tbaa !21
  %142 = load i32, ptr %17, align 4, !tbaa !21
  %143 = add nsw i32 %141, %142
  %144 = mul nsw i32 9, %143
  %145 = load i32, ptr %15, align 4, !tbaa !21
  %146 = load i32, ptr %18, align 4, !tbaa !21
  %147 = add nsw i32 %145, %146
  %148 = sub nsw i32 %144, %147
  %149 = add nsw i32 %148, 8
  %150 = ashr i32 %149, 4
  %151 = sext i32 %150 to i64
  %152 = getelementptr inbounds i8, ptr %140, i64 %151
  %153 = load i8, ptr %152, align 1, !tbaa !25
  %154 = load ptr, ptr %6, align 8, !tbaa !15
  %155 = load i32, ptr %8, align 4, !tbaa !21
  %156 = mul nsw i32 2, %155
  %157 = sext i32 %156 to i64
  %158 = getelementptr inbounds i8, ptr %154, i64 %157
  store i8 %153, ptr %158, align 1, !tbaa !25
  %159 = load ptr, ptr %11, align 8, !tbaa !15
  %160 = load i32, ptr %17, align 4, !tbaa !21
  %161 = load i32, ptr %18, align 4, !tbaa !21
  %162 = add nsw i32 %160, %161
  %163 = mul nsw i32 9, %162
  %164 = load i32, ptr %16, align 4, !tbaa !21
  %165 = load i32, ptr %19, align 4, !tbaa !21
  %166 = add nsw i32 %164, %165
  %167 = sub nsw i32 %163, %166
  %168 = add nsw i32 %167, 8
  %169 = ashr i32 %168, 4
  %170 = sext i32 %169 to i64
  %171 = getelementptr inbounds i8, ptr %159, i64 %170
  %172 = load i8, ptr %171, align 1, !tbaa !25
  %173 = load ptr, ptr %6, align 8, !tbaa !15
  %174 = load i32, ptr %8, align 4, !tbaa !21
  %175 = mul nsw i32 3, %174
  %176 = sext i32 %175 to i64
  %177 = getelementptr inbounds i8, ptr %173, i64 %176
  store i8 %172, ptr %177, align 1, !tbaa !25
  %178 = load ptr, ptr %11, align 8, !tbaa !15
  %179 = load i32, ptr %18, align 4, !tbaa !21
  %180 = load i32, ptr %19, align 4, !tbaa !21
  %181 = add nsw i32 %179, %180
  %182 = mul nsw i32 9, %181
  %183 = load i32, ptr %17, align 4, !tbaa !21
  %184 = load i32, ptr %20, align 4, !tbaa !21
  %185 = add nsw i32 %183, %184
  %186 = sub nsw i32 %182, %185
  %187 = add nsw i32 %186, 8
  %188 = ashr i32 %187, 4
  %189 = sext i32 %188 to i64
  %190 = getelementptr inbounds i8, ptr %178, i64 %189
  %191 = load i8, ptr %190, align 1, !tbaa !25
  %192 = load ptr, ptr %6, align 8, !tbaa !15
  %193 = load i32, ptr %8, align 4, !tbaa !21
  %194 = mul nsw i32 4, %193
  %195 = sext i32 %194 to i64
  %196 = getelementptr inbounds i8, ptr %192, i64 %195
  store i8 %191, ptr %196, align 1, !tbaa !25
  %197 = load ptr, ptr %11, align 8, !tbaa !15
  %198 = load i32, ptr %19, align 4, !tbaa !21
  %199 = load i32, ptr %20, align 4, !tbaa !21
  %200 = add nsw i32 %198, %199
  %201 = mul nsw i32 9, %200
  %202 = load i32, ptr %18, align 4, !tbaa !21
  %203 = load i32, ptr %21, align 4, !tbaa !21
  %204 = add nsw i32 %202, %203
  %205 = sub nsw i32 %201, %204
  %206 = add nsw i32 %205, 8
  %207 = ashr i32 %206, 4
  %208 = sext i32 %207 to i64
  %209 = getelementptr inbounds i8, ptr %197, i64 %208
  %210 = load i8, ptr %209, align 1, !tbaa !25
  %211 = load ptr, ptr %6, align 8, !tbaa !15
  %212 = load i32, ptr %8, align 4, !tbaa !21
  %213 = mul nsw i32 5, %212
  %214 = sext i32 %213 to i64
  %215 = getelementptr inbounds i8, ptr %211, i64 %214
  store i8 %210, ptr %215, align 1, !tbaa !25
  %216 = load ptr, ptr %11, align 8, !tbaa !15
  %217 = load i32, ptr %20, align 4, !tbaa !21
  %218 = load i32, ptr %21, align 4, !tbaa !21
  %219 = add nsw i32 %217, %218
  %220 = mul nsw i32 9, %219
  %221 = load i32, ptr %19, align 4, !tbaa !21
  %222 = load i32, ptr %22, align 4, !tbaa !21
  %223 = add nsw i32 %221, %222
  %224 = sub nsw i32 %220, %223
  %225 = add nsw i32 %224, 8
  %226 = ashr i32 %225, 4
  %227 = sext i32 %226 to i64
  %228 = getelementptr inbounds i8, ptr %216, i64 %227
  %229 = load i8, ptr %228, align 1, !tbaa !25
  %230 = load ptr, ptr %6, align 8, !tbaa !15
  %231 = load i32, ptr %8, align 4, !tbaa !21
  %232 = mul nsw i32 6, %231
  %233 = sext i32 %232 to i64
  %234 = getelementptr inbounds i8, ptr %230, i64 %233
  store i8 %229, ptr %234, align 1, !tbaa !25
  %235 = load ptr, ptr %11, align 8, !tbaa !15
  %236 = load i32, ptr %21, align 4, !tbaa !21
  %237 = load i32, ptr %22, align 4, !tbaa !21
  %238 = add nsw i32 %236, %237
  %239 = mul nsw i32 9, %238
  %240 = load i32, ptr %20, align 4, !tbaa !21
  %241 = load i32, ptr %23, align 4, !tbaa !21
  %242 = add nsw i32 %240, %241
  %243 = sub nsw i32 %239, %242
  %244 = add nsw i32 %243, 8
  %245 = ashr i32 %244, 4
  %246 = sext i32 %245 to i64
  %247 = getelementptr inbounds i8, ptr %235, i64 %246
  %248 = load i8, ptr %247, align 1, !tbaa !25
  %249 = load ptr, ptr %6, align 8, !tbaa !15
  %250 = load i32, ptr %8, align 4, !tbaa !21
  %251 = mul nsw i32 7, %250
  %252 = sext i32 %251 to i64
  %253 = getelementptr inbounds i8, ptr %249, i64 %252
  store i8 %248, ptr %253, align 1, !tbaa !25
  %254 = load ptr, ptr %7, align 8, !tbaa !15
  %255 = getelementptr inbounds nuw i8, ptr %254, i32 1
  store ptr %255, ptr %7, align 8, !tbaa !15
  %256 = load ptr, ptr %6, align 8, !tbaa !15
  %257 = getelementptr inbounds nuw i8, ptr %256, i32 1
  store ptr %257, ptr %6, align 8, !tbaa !15
  call void @llvm.lifetime.end.p0(i64 4, ptr %23) #5
  call void @llvm.lifetime.end.p0(i64 4, ptr %22) #5
  call void @llvm.lifetime.end.p0(i64 4, ptr %21) #5
  call void @llvm.lifetime.end.p0(i64 4, ptr %20) #5
  call void @llvm.lifetime.end.p0(i64 4, ptr %19) #5
  call void @llvm.lifetime.end.p0(i64 4, ptr %18) #5
  call void @llvm.lifetime.end.p0(i64 4, ptr %17) #5
  call void @llvm.lifetime.end.p0(i64 4, ptr %16) #5
  call void @llvm.lifetime.end.p0(i64 4, ptr %15) #5
  call void @llvm.lifetime.end.p0(i64 4, ptr %14) #5
  call void @llvm.lifetime.end.p0(i64 4, ptr %13) #5
  br label %258

258:                                              ; preds = %28
  %259 = load i32, ptr %12, align 4, !tbaa !21
  %260 = add nsw i32 %259, 1
  store i32 %260, ptr %12, align 4, !tbaa !21
  br label %24, !llvm.loop !33

261:                                              ; preds = %24
  call void @llvm.lifetime.end.p0(i64 4, ptr %12) #5
  call void @llvm.lifetime.end.p0(i64 8, ptr %11) #5
  ret void
}