; Function Attrs: nofree norecurse nosync nounwind memory(argmem: readwrite) uwtable
define internal fastcc void @wmv2_mspel8_v_lowpass(ptr noundef writeonly captures(none) %0, ptr noundef readonly captures(none) %1, i32 noundef %2, i32 noundef %3) unnamed_addr #1 {
  %5 = sub nsw i32 0, %3
  %6 = sext i32 %5 to i64
  %7 = sext i32 %3 to i64
  %8 = shl nsw i32 %3, 1
  %9 = sext i32 %8 to i64
  %10 = mul nsw i32 %3, 3
  %11 = sext i32 %10 to i64
  %12 = shl nsw i32 %3, 2
  %13 = sext i32 %12 to i64
  %14 = mul nsw i32 %3, 5
  %15 = sext i32 %14 to i64
  %16 = mul nsw i32 %3, 6
  %17 = sext i32 %16 to i64
  %18 = mul nsw i32 %3, 7
  %19 = sext i32 %18 to i64
  %20 = shl nsw i32 %3, 3
  %21 = sext i32 %20 to i64
  %22 = mul nsw i32 %3, 9
  %23 = sext i32 %22 to i64
  %24 = sext i32 %2 to i64
  %25 = shl nsw i32 %2, 1
  %26 = sext i32 %25 to i64
  %27 = mul nsw i32 %2, 3
  %28 = sext i32 %27 to i64
  %29 = shl nsw i32 %2, 2
  %30 = sext i32 %29 to i64
  %31 = mul nsw i32 %2, 5
  %32 = sext i32 %31 to i64
  %33 = mul nsw i32 %2, 6
  %34 = sext i32 %33 to i64
  %35 = mul nsw i32 %2, 7
  %36 = sext i32 %35 to i64
  br label %37

37:                                               ; preds = %4, %37
  %.0103 = phi ptr [ %0, %4 ], [ %142, %37 ]
  %.081102 = phi ptr [ %1, %4 ], [ %141, %37 ]
  %.082101 = phi i32 [ 0, %4 ], [ %143, %37 ]
  %38 = getelementptr inbounds i8, ptr %.081102, i64 %6
  %39 = load i8, ptr %38, align 1, !tbaa !18
  %40 = zext i8 %39 to i32
  %41 = load i8, ptr %.081102, align 1, !tbaa !18
  %42 = zext i8 %41 to i32
  %43 = getelementptr inbounds i8, ptr %.081102, i64 %7
  %44 = load i8, ptr %43, align 1, !tbaa !18
  %45 = zext i8 %44 to i32
  %46 = getelementptr inbounds i8, ptr %.081102, i64 %9
  %47 = load i8, ptr %46, align 1, !tbaa !18
  %48 = zext i8 %47 to i32
  %49 = getelementptr inbounds i8, ptr %.081102, i64 %11
  %50 = load i8, ptr %49, align 1, !tbaa !18
  %51 = zext i8 %50 to i32
  %52 = getelementptr inbounds i8, ptr %.081102, i64 %13
  %53 = load i8, ptr %52, align 1, !tbaa !18
  %54 = zext i8 %53 to i32
  %55 = getelementptr inbounds i8, ptr %.081102, i64 %15
  %56 = load i8, ptr %55, align 1, !tbaa !18
  %57 = zext i8 %56 to i32
  %58 = getelementptr inbounds i8, ptr %.081102, i64 %17
  %59 = load i8, ptr %58, align 1, !tbaa !18
  %60 = zext i8 %59 to i32
  %61 = getelementptr inbounds i8, ptr %.081102, i64 %19
  %62 = load i8, ptr %61, align 1, !tbaa !18
  %63 = zext i8 %62 to i32
  %64 = getelementptr inbounds i8, ptr %.081102, i64 %21
  %65 = load i8, ptr %64, align 1, !tbaa !18
  %66 = zext i8 %65 to i32
  %67 = getelementptr inbounds i8, ptr %.081102, i64 %23
  %68 = load i8, ptr %67, align 1, !tbaa !18
  %69 = zext i8 %68 to i32
  %70 = add nuw nsw i32 %45, %42
  %71 = mul nuw nsw i32 %70, 9
  %72 = add nuw nsw i32 %40, %48
  %reass.sub = sub nsw i32 %71, %72
  %73 = add nsw i32 %reass.sub, 8
  %74 = ashr i32 %73, 4
  %75 = sext i32 %74 to i64
  %76 = getelementptr inbounds i8, ptr getelementptr inbounds nuw (i8, ptr @ff_crop_tab, i64 1024), i64 %75
  %77 = load i8, ptr %76, align 1, !tbaa !18
  store i8 %77, ptr %.0103, align 1, !tbaa !18
  %78 = add nuw nsw i32 %48, %45
  %79 = mul nuw nsw i32 %78, 9
  %80 = add nuw nsw i32 %42, %51
  %reass.sub104 = sub nsw i32 %79, %80
  %81 = add nsw i32 %reass.sub104, 8
  %82 = ashr i32 %81, 4
  %83 = sext i32 %82 to i64
  %84 = getelementptr inbounds i8, ptr getelementptr inbounds nuw (i8, ptr @ff_crop_tab, i64 1024), i64 %83
  %85 = load i8, ptr %84, align 1, !tbaa !18
  %86 = getelementptr inbounds i8, ptr %.0103, i64 %24
  store i8 %85, ptr %86, align 1, !tbaa !18
  %87 = add nuw nsw i32 %51, %48
  %88 = mul nuw nsw i32 %87, 9
  %89 = add nuw nsw i32 %45, %54
  %reass.sub105 = sub nsw i32 %88, %89
  %90 = add nsw i32 %reass.sub105, 8
  %91 = ashr i32 %90, 4
  %92 = sext i32 %91 to i64
  %93 = getelementptr inbounds i8, ptr getelementptr inbounds nuw (i8, ptr @ff_crop_tab, i64 1024), i64 %92
  %94 = load i8, ptr %93, align 1, !tbaa !18
  %95 = getelementptr inbounds i8, ptr %.0103, i64 %26
  store i8 %94, ptr %95, align 1, !tbaa !18
  %96 = add nuw nsw i32 %54, %51
  %97 = mul nuw nsw i32 %96, 9
  %98 = add nuw nsw i32 %48, %57
  %reass.sub106 = sub nsw i32 %97, %98
  %99 = add nsw i32 %reass.sub106, 8
  %100 = ashr i32 %99, 4
  %101 = sext i32 %100 to i64
  %102 = getelementptr inbounds i8, ptr getelementptr inbounds nuw (i8, ptr @ff_crop_tab, i64 1024), i64 %101
  %103 = load i8, ptr %102, align 1, !tbaa !18
  %104 = getelementptr inbounds i8, ptr %.0103, i64 %28
  store i8 %103, ptr %104, align 1, !tbaa !18
  %105 = add nuw nsw i32 %57, %54
  %106 = mul nuw nsw i32 %105, 9
  %107 = add nuw nsw i32 %51, %60
  %reass.sub107 = sub nsw i32 %106, %107
  %108 = add nsw i32 %reass.sub107, 8
  %109 = ashr i32 %108, 4
  %110 = sext i32 %109 to i64
  %111 = getelementptr inbounds i8, ptr getelementptr inbounds nuw (i8, ptr @ff_crop_tab, i64 1024), i64 %110
  %112 = load i8, ptr %111, align 1, !tbaa !18
  %113 = getelementptr inbounds i8, ptr %.0103, i64 %30
  store i8 %112, ptr %113, align 1, !tbaa !18
  %114 = add nuw nsw i32 %60, %57
  %115 = mul nuw nsw i32 %114, 9
  %116 = add nuw nsw i32 %54, %63
  %reass.sub108 = sub nsw i32 %115, %116
  %117 = add nsw i32 %reass.sub108, 8
  %118 = ashr i32 %117, 4
  %119 = sext i32 %118 to i64
  %120 = getelementptr inbounds i8, ptr getelementptr inbounds nuw (i8, ptr @ff_crop_tab, i64 1024), i64 %119
  %121 = load i8, ptr %120, align 1, !tbaa !18
  %122 = getelementptr inbounds i8, ptr %.0103, i64 %32
  store i8 %121, ptr %122, align 1, !tbaa !18
  %123 = add nuw nsw i32 %63, %60
  %124 = mul nuw nsw i32 %123, 9
  %125 = add nuw nsw i32 %57, %66
  %reass.sub109 = sub nsw i32 %124, %125
  %126 = add nsw i32 %reass.sub109, 8
  %127 = ashr i32 %126, 4
  %128 = sext i32 %127 to i64
  %129 = getelementptr inbounds i8, ptr getelementptr inbounds nuw (i8, ptr @ff_crop_tab, i64 1024), i64 %128
  %130 = load i8, ptr %129, align 1, !tbaa !18
  %131 = getelementptr inbounds i8, ptr %.0103, i64 %34
  store i8 %130, ptr %131, align 1, !tbaa !18
  %132 = add nuw nsw i32 %66, %63
  %133 = mul nuw nsw i32 %132, 9
  %134 = add nuw nsw i32 %60, %69
  %reass.sub110 = sub nsw i32 %133, %134
  %135 = add nsw i32 %reass.sub110, 8
  %136 = ashr i32 %135, 4
  %137 = sext i32 %136 to i64
  %138 = getelementptr inbounds i8, ptr getelementptr inbounds nuw (i8, ptr @ff_crop_tab, i64 1024), i64 %137
  %139 = load i8, ptr %138, align 1, !tbaa !18
  %140 = getelementptr inbounds i8, ptr %.0103, i64 %36
  store i8 %139, ptr %140, align 1, !tbaa !18
  %141 = getelementptr inbounds nuw i8, ptr %.081102, i64 1
  %142 = getelementptr inbounds nuw i8, ptr %.0103, i64 1
  %143 = add nuw nsw i32 %.082101, 1
  %exitcond.not = icmp eq i32 %143, 8
  br i1 %exitcond.not, label %144, label %37, !llvm.loop !24

144:                                              ; preds = %37
  ret void
}